target datalayout = "e-m:e-p270:32:32-p271:32:32-p272:64:64-i64:64-i128:128-f80:128-n8:16:32:64-S128"
target triple = "x86_64-pc-linux-gnu"

; Function Attrs: alwaysinline nounwind willreturn memory(none) uwtable
define internal i32 @av_clip_c(i32 noundef %0, i32 noundef %1, i32 noundef %2) #8 {
  %4 = alloca i32, align 4
  %5 = alloca i32, align 4
  %6 = alloca i32, align 4
  %7 = alloca i32, align 4
  store i32 %0, ptr %5, align 4, !tbaa !49
  store i32 %1, ptr %6, align 4, !tbaa !49
  store i32 %2, ptr %7, align 4, !tbaa !49
  %8 = load i32, ptr %5, align 4, !tbaa !49
  %9 = load i32, ptr %6, align 4, !tbaa !49
  %10 = icmp slt i32 %8, %9
  br i1 %10, label %11, label %13

11:                                               ; preds = %3
  %12 = load i32, ptr %6, align 4, !tbaa !49
  store i32 %12, ptr %4, align 4
  br label %21

13:                                               ; preds = %3
  %14 = load i32, ptr %5, align 4, !tbaa !49
  %15 = load i32, ptr %7, align 4, !tbaa !49
  %16 = icmp sgt i32 %14, %15
  br i1 %16, label %17, label %19

17:                                               ; preds = %13
  %18 = load i32, ptr %7, align 4, !tbaa !49
  store i32 %18, ptr %4, align 4
  br label %21

19:                                               ; preds = %13
  %20 = load i32, ptr %5, align 4, !tbaa !49
  store i32 %20, ptr %4, align 4
  br label %21

21:                                               ; preds = %19, %17, %11
  %22 = load i32, ptr %4, align 4
  ret i32 %22
}

; Function Attrs: nounwind uwtable
define internal void @draw_sample_p2p_gray(ptr noundef %0, i32 noundef %1, i32 noundef %2, ptr noundef %3, ptr noundef %4, i32 noundef %5) #1 {
  %7 = alloca ptr, align 8
  %8 = alloca i32, align 4
  %9 = alloca i32, align 4
  %10 = alloca ptr, align 8
  %11 = alloca ptr, align 8
  %12 = alloca i32, align 4
  %13 = alloca i32, align 4
  %14 = alloca i32, align 4
  %15 = alloca i32, align 4
  %16 = alloca i16, align 2
  store ptr %0, ptr %7, align 8, !tbaa !69
  store i32 %1, ptr %8, align 4, !tbaa !49
  store i32 %2, ptr %9, align 4, !tbaa !49
  store ptr %3, ptr %10, align 8, !tbaa !92
  store ptr %4, ptr %11, align 8, !tbaa !69
  store i32 %5, ptr %12, align 4, !tbaa !49
  call void @llvm.lifetime.start.p0(i64 4, ptr %13) #13
  %17 = load i32, ptr %12, align 4, !tbaa !49
  %18 = icmp sge i32 %17, 0
  br i1 %18, label %19, label %95

19:                                               ; preds = %6
  %20 = load i32, ptr %12, align 4, !tbaa !49
  %21 = load i32, ptr %8, align 4, !tbaa !49
  %22 = icmp slt i32 %20, %21
  br i1 %22, label %23, label %95

23:                                               ; preds = %19
  %24 = load ptr, ptr %11, align 8, !tbaa !69
  %25 = getelementptr inbounds i8, ptr %24, i64 0
  %26 = load i8, ptr %25, align 1, !tbaa !89
  %27 = zext i8 %26 to i32
  %28 = load ptr, ptr %7, align 8, !tbaa !69
  %29 = load i32, ptr %12, align 4, !tbaa !49
  %30 = load i32, ptr %9, align 4, !tbaa !49
  %31 = mul nsw i32 %29, %30
  %32 = sext i32 %31 to i64
  %33 = getelementptr inbounds i8, ptr %28, i64 %32
  %34 = load i8, ptr %33, align 1, !tbaa !89
  %35 = zext i8 %34 to i32
  %36 = add nsw i32 %35, %27
  %37 = trunc i32 %36 to i8
  store i8 %37, ptr %33, align 1, !tbaa !89
  %38 = load ptr, ptr %10, align 8, !tbaa !92
  %39 = load i16, ptr %38, align 2, !tbaa !93
  %40 = sext i16 %39 to i32
  %41 = icmp ne i32 %40, 0
  br i1 %41, label %42, label %94

42:                                               ; preds = %23
  %43 = load i32, ptr %12, align 4, !tbaa !49
  %44 = load ptr, ptr %10, align 8, !tbaa !92
  %45 = load i16, ptr %44, align 2, !tbaa !93
  %46 = sext i16 %45 to i32
  %47 = icmp ne i32 %43, %46
  br i1 %47, label %48, label %94

48:                                               ; preds = %42
  call void @llvm.lifetime.start.p0(i64 4, ptr %14) #13
  %49 = load ptr, ptr %10, align 8, !tbaa !92
  %50 = load i16, ptr %49, align 2, !tbaa !93
  %51 = sext i16 %50 to i32
  store i32 %51, ptr %14, align 4, !tbaa !49
  call void @llvm.lifetime.start.p0(i64 4, ptr %15) #13
  %52 = load i32, ptr %12, align 4, !tbaa !49
  %53 = load i32, ptr %8, align 4, !tbaa !49
  %54 = sub nsw i32 %53, 1
  %55 = call i32 @av_clip_c(i32 noundef %52, i32 noundef 0, i32 noundef %54) #15
  store i32 %55, ptr %15, align 4, !tbaa !49
  %56 = load i32, ptr %14, align 4, !tbaa !49
  %57 = load i32, ptr %15, align 4, !tbaa !49
  %58 = icmp sgt i32 %56, %57
  br i1 %58, label %59, label %68

59:                                               ; preds = %48
  br label %60

60:                                               ; preds = %59
  call void @llvm.lifetime.start.p0(i64 2, ptr %16) #13
  %61 = load i32, ptr %15, align 4, !tbaa !49
  %62 = trunc i32 %61 to i16
  store i16 %62, ptr %16, align 2, !tbaa !93
  %63 = load i32, ptr %14, align 4, !tbaa !49
  store i32 %63, ptr %15, align 4, !tbaa !49
  %64 = load i16, ptr %16, align 2, !tbaa !93
  %65 = sext i16 %64 to i32
  store i32 %65, ptr %14, align 4, !tbaa !49
  call void @llvm.lifetime.end.p0(i64 2, ptr %16) #13
  br label %66

66:                                               ; preds = %60
  br label %67

67:                                               ; preds = %66
  br label %68

68:                                               ; preds = %67, %48
  %69 = load i32, ptr %14, align 4, !tbaa !49
  %70 = add nsw i32 %69, 1
  store i32 %70, ptr %13, align 4, !tbaa !49
  br label %71

71:                                               ; preds = %90, %68
  %72 = load i32, ptr %13, align 4, !tbaa !49
  %73 = load i32, ptr %15, align 4, !tbaa !49
  %74 = icmp slt i32 %72, %73
  br i1 %74, label %75, label %93

75:                                               ; preds = %71
  %76 = load ptr, ptr %11, align 8, !tbaa !69
  %77 = getelementptr inbounds i8, ptr %76, i64 0
  %78 = load i8, ptr %77, align 1, !tbaa !89
  %79 = zext i8 %78 to i32
  %80 = load ptr, ptr %7, align 8, !tbaa !69
  %81 = load i32, ptr %13, align 4, !tbaa !49
  %82 = load i32, ptr %9, align 4, !tbaa !49
  %83 = mul nsw i32 %81, %82
  %84 = sext i32 %83 to i64
  %85 = getelementptr inbounds i8, ptr %80, i64 %84
  %86 = load i8, ptr %85, align 1, !tbaa !89
  %87 = zext i8 %86 to i32
  %88 = add nsw i32 %87, %79
  %89 = trunc i32 %88 to i8
  store i8 %89, ptr %85, align 1, !tbaa !89
  br label %90

90:                                               ; preds = %75
  %91 = load i32, ptr %13, align 4, !tbaa !49
  %92 = add nsw i32 %91, 1
  store i32 %92, ptr %13, align 4, !tbaa !49
  br label %71, !llvm.loop !96

93:                                               ; preds = %71
  call void @llvm.lifetime.end.p0(i64 4, ptr %15) #13
  call void @llvm.lifetime.end.p0(i64 4, ptr %14) #13
  br label %94

94:                                               ; preds = %93, %42, %23
  br label %95

95:                                               ; preds = %94, %19, %6
  %96 = load i32, ptr %12, align 4, !tbaa !49
  %97 = trunc i32 %96 to i16
  %98 = load ptr, ptr %10, align 8, !tbaa !92
  store i16 %97, ptr %98, align 2, !tbaa !93
  call void @llvm.lifetime.end.p0(i64 4, ptr %13) #13
  ret void
}