; Function Attrs: nofree norecurse nosync nounwind memory(argmem: readwrite) uwtable
define internal void @draw_sample_p2p_gray(ptr noundef captures(none) %0, i32 noundef %1, i32 noundef %2, ptr noundef captures(none) %3, ptr noundef readonly captures(none) %4, i32 noundef %5) #7 {
  %7 = icmp sgt i32 %5, -1
  %8 = icmp slt i32 %5, %1
  %or.cond = and i1 %7, %8
  br i1 %or.cond, label %9, label %.loopexit

9:                                                ; preds = %6
  %10 = load i8, ptr %4, align 1, !tbaa !96
  %11 = mul nsw i32 %5, %2
  %12 = sext i32 %11 to i64
  %13 = getelementptr inbounds i8, ptr %0, i64 %12
  %14 = load i8, ptr %13, align 1, !tbaa !96
  %15 = add i8 %14, %10
  store i8 %15, ptr %13, align 1, !tbaa !96
  %16 = load i16, ptr %3, align 2, !tbaa !77
  %17 = sext i16 %16 to i32
  %.not = icmp eq i16 %16, 0
  %.not33 = icmp eq i32 %5, %17
  %or.cond34 = or i1 %.not, %.not33
  br i1 %or.cond34, label %.loopexit, label %18

18:                                               ; preds = %9
  %19 = icmp slt i32 %5, %17
  %sext = shl i32 %5, 16
  %20 = ashr exact i32 %sext, 16
  %.028 = select i1 %19, i32 %20, i32 %17
  %.027 = tail call i32 @llvm.smax.i32(i32 %5, i32 %17)
  %.035 = add nsw i32 %.028, 1
  %21 = icmp slt i32 %.035, %.027
  br i1 %21, label %.lr.ph.preheader, label %.loopexit

.lr.ph.preheader:                                 ; preds = %18
  %narrow = add nsw i32 %.028, 1
  %22 = sext i32 %narrow to i64
  %23 = sext i32 %2 to i64
  %wide.trip.count = zext nneg i32 %.027 to i64
  br label %.lr.ph

.lr.ph:                                           ; preds = %.lr.ph.preheader, %.lr.ph
  %indvars.iv = phi i64 [ %22, %.lr.ph.preheader ], [ %indvars.iv.next, %.lr.ph ]
  %24 = load i8, ptr %4, align 1, !tbaa !96
  %25 = mul nsw i64 %indvars.iv, %23
  %26 = getelementptr inbounds i8, ptr %0, i64 %25
  %27 = load i8, ptr %26, align 1, !tbaa !96
  %28 = add i8 %27, %24
  store i8 %28, ptr %26, align 1, !tbaa !96
  %indvars.iv.next = add nsw i64 %indvars.iv, 1
  %exitcond.not = icmp eq i64 %indvars.iv.next, %wide.trip.count
  br i1 %exitcond.not, label %.loopexit, label %.lr.ph, !llvm.loop !100

.loopexit:                                        ; preds = %.lr.ph, %18, %9, %6
  %29 = trunc i32 %5 to i16
  store i16 %29, ptr %3, align 2, !tbaa !77
  ret void
}